; Function Attrs: nounwind uwtable
define dso_local void @__archive_ensure_cloexec_flag(i32 noundef %0) local_unnamed_addr #0 {
  %2 = icmp sgt i32 %0, -1
  br i1 %2, label %3, label %10

3:                                                ; preds = %1
  %4 = tail call i32 (i32, i32, ...) @fcntl(i32 noundef %0, i32 noundef 1) #18
  %5 = and i32 %4, 1
  %6 = icmp eq i32 %5, 0
  br i1 %6, label %7, label %10

7:                                                ; preds = %3
  %8 = or disjoint i32 %4, 1
  %9 = tail call i32 (i32, i32, ...) @fcntl(i32 noundef %0, i32 noundef 2, i32 noundef %8) #18
  br label %10

10:                                               ; preds = %3, %7, %1
  ret void
}